target datalayout = "e-m:e-p270:32:32-p271:32:32-p272:64:64-i64:64-i128:128-f80:128-n8:16:32:64-S128"
target triple = "x86_64-unknown-linux-gnu"

%"class.sat::literal" = type { i32 }
%"struct.sat::npn3_finder::binary" = type { %"class.sat::literal", %"class.sat::literal", ptr }
%"class.sat::npn3_finder" = type { ptr, %"class.sat::big", %"class.std::function", %"class.std::function", %"class.std::function", %"class.std::function", %"class.std::function", %"class.std::function", %"class.std::function", %"class.std::function", %"class.std::function", %"class.std::function", %class.scoped_ptr_vector }
%"class.sat::big" = type { ptr, i32, %class.vector, %class.svector, %class.svector.1, %class.svector.1, %class.svector.3, %class.svector.3, i8, i8, %class.vector }
%class.svector = type { %class.vector.0 }
%class.vector.0 = type { ptr }
%class.svector.1 = type { %class.vector.2 }
%class.vector.2 = type { ptr }
%class.svector.3 = type { %class.vector.4 }
%class.vector.4 = type { ptr }
%class.vector = type { ptr }
%"class.std::function" = type { %"class.std::_Function_base", ptr }
%"class.std::_Function_base" = type { %"union.std::_Any_data", ptr }
%"union.std::_Any_data" = type { %"union.std::_Nocopy_types" }
%"union.std::_Nocopy_types" = type { { i64, i64 } }
%class.scoped_ptr_vector = type { %class.ptr_vector }
%class.ptr_vector = type { %class.vector.5 }
%class.vector.5 = type { ptr }
%class.vector.18 = type { ptr }
%class.anon.61 = type { ptr, ptr }
%"struct.std::pair" = type { %"class.sat::literal", ptr }
%class.default_hash_entry.79 = type { i32, i32, %"struct.sat::npn3_finder::binary" }

@_ZN3sat11npn3_finder6binaryC1ENS_7literalES2_P7svectorISt4pairIS2_PNS_6clauseEEjE = hidden unnamed_addr alias void (ptr, i32, i32, ptr), ptr @_ZN3sat11npn3_finder6binaryC2ENS_7literalES2_P7svectorISt4pairIS2_PNS_6clauseEEjE

; Function Attrs: mustprogress nounwind uwtable
define linkonce_odr hidden void @_ZNSt4pairIN3sat7literalEPNS0_6clauseEEC2IRS1_RS3_TnNSt9enable_ifIXaaclsr5_PCCPE22_MoveConstructiblePairIT_T0_EEclsr5_PCCPE30_ImplicitlyMoveConvertiblePairIS9_SA_EEEbE4typeELb1EEEOS9_OSA_(ptr noundef nonnull align 8 dereferenceable(16) %this, ptr noundef nonnull align 4 dereferenceable(4) %__x, ptr noundef nonnull align 8 dereferenceable(8) %__y) unnamed_addr #4 comdat align 2 {
entry:
  %this.addr = alloca ptr, align 8
  %__x.addr = alloca ptr, align 8
  %__y.addr = alloca ptr, align 8
  store ptr %this, ptr %this.addr, align 8
  store ptr %__x, ptr %__x.addr, align 8
  store ptr %__y, ptr %__y.addr, align 8
  %this1 = load ptr, ptr %this.addr, align 8
  %first = getelementptr inbounds %"struct.std::pair", ptr %this1, i32 0, i32 0
  %0 = load ptr, ptr %__x.addr, align 8
  call void @llvm.memcpy.p0.p0.i64(ptr align 8 %first, ptr align 4 %0, i64 4, i1 false)
  %second = getelementptr inbounds %"struct.std::pair", ptr %this1, i32 0, i32 1
  %1 = load ptr, ptr %__y.addr, align 8
  %2 = load ptr, ptr %1, align 8
  store ptr %2, ptr %second, align 8
  ret void
}

; Function Attrs: mustprogress uwtable
define linkonce_odr hidden noundef nonnull align 8 dereferenceable(8) ptr @_ZN6vectorIP7svectorISt4pairIN3sat7literalEPNS2_6clauseEEjELb0EjE9push_backERKS8_(ptr noundef nonnull align 8 dereferenceable(8) %this, ptr noundef nonnull align 8 dereferenceable(8) %elem) #5 comdat align 2 {
entry:
  %this.addr = alloca ptr, align 8
  %elem.addr = alloca ptr, align 8
  store ptr %this, ptr %this.addr, align 8
  store ptr %elem, ptr %elem.addr, align 8
  %this1 = load ptr, ptr %this.addr, align 8
  %m_data = getelementptr inbounds %class.vector.5, ptr %this1, i32 0, i32 0
  %0 = load ptr, ptr %m_data, align 8
  %cmp = icmp eq ptr %0, null
  br i1 %cmp, label %if.then, label %lor.lhs.false

lor.lhs.false:                                    ; preds = %entry
  %m_data2 = getelementptr inbounds %class.vector.5, ptr %this1, i32 0, i32 0
  %1 = load ptr, ptr %m_data2, align 8
  %arrayidx = getelementptr inbounds i32, ptr %1, i64 -1
  %2 = load i32, ptr %arrayidx, align 4
  %m_data3 = getelementptr inbounds %class.vector.5, ptr %this1, i32 0, i32 0
  %3 = load ptr, ptr %m_data3, align 8
  %arrayidx4 = getelementptr inbounds i32, ptr %3, i64 -2
  %4 = load i32, ptr %arrayidx4, align 4
  %cmp5 = icmp eq i32 %2, %4
  br i1 %cmp5, label %if.then, label %if.end

if.then:                                          ; preds = %lor.lhs.false, %entry
  call void @_ZN6vectorIP7svectorISt4pairIN3sat7literalEPNS2_6clauseEEjELb0EjE13expand_vectorEv(ptr noundef nonnull align 8 dereferenceable(8) %this1)
  br label %if.end

if.end:                                           ; preds = %if.then, %lor.lhs.false
  %m_data6 = getelementptr inbounds %class.vector.5, ptr %this1, i32 0, i32 0
  %5 = load ptr, ptr %m_data6, align 8
  %m_data7 = getelementptr inbounds %class.vector.5, ptr %this1, i32 0, i32 0
  %6 = load ptr, ptr %m_data7, align 8
  %arrayidx8 = getelementptr inbounds i32, ptr %6, i64 -1
  %7 = load i32, ptr %arrayidx8, align 4
  %idx.ext = zext i32 %7 to i64
  %add.ptr = getelementptr inbounds ptr, ptr %5, i64 %idx.ext
  %8 = load ptr, ptr %elem.addr, align 8
  %9 = load ptr, ptr %8, align 8
  store ptr %9, ptr %add.ptr, align 8
  %m_data9 = getelementptr inbounds %class.vector.5, ptr %this1, i32 0, i32 0
  %10 = load ptr, ptr %m_data9, align 8
  %arrayidx10 = getelementptr inbounds i32, ptr %10, i64 -1
  %11 = load i32, ptr %arrayidx10, align 4
  %inc = add i32 %11, 1
  store i32 %inc, ptr %arrayidx10, align 4
  ret ptr %this1
}

; Function Attrs: mustprogress nounwind uwtable
define linkonce_odr hidden void @_ZN6vectorISt4pairIN3sat7literalEPNS1_6clauseEELb0EjEC2Ev(ptr noundef nonnull align 8 dereferenceable(8) %this) unnamed_addr #4 comdat align 2 {
entry:
  %this.addr = alloca ptr, align 8
  store ptr %this, ptr %this.addr, align 8
  %this1 = load ptr, ptr %this.addr, align 8
  %m_data = getelementptr inbounds %class.vector.18, ptr %this1, i32 0, i32 0
  store ptr null, ptr %m_data, align 8
  ret void
}

; Function Attrs: mustprogress uwtable
define linkonce_odr hidden noundef zeroext i1 @_ZN14core_hashtableI18default_hash_entryIN3sat11npn3_finder6binaryEENS3_4hashENS3_2eqEE24insert_if_not_there_coreERKS3_RPS4_(ptr noundef nonnull align 8 dereferenceable(20) %this, ptr noundef nonnull align 8 dereferenceable(16) %e, ptr noundef nonnull align 8 dereferenceable(8) %et) #5 comdat align 2 {
entry:
  %this.addr = alloca ptr, align 8
  %e.addr = alloca ptr, align 8
  %et.addr = alloca ptr, align 8
  %temp = alloca %"struct.sat::npn3_finder::binary", align 8
  store ptr %this, ptr %this.addr, align 8
  store ptr %e, ptr %e.addr, align 8
  store ptr %et, ptr %et.addr, align 8
  %this1 = load ptr, ptr %this.addr, align 8
  %0 = load ptr, ptr %e.addr, align 8
  call void @llvm.memcpy.p0.p0.i64(ptr align 8 %temp, ptr align 8 %0, i64 16, i1 false)
  %1 = load ptr, ptr %et.addr, align 8
  %call = call noundef zeroext i1 @_ZN14core_hashtableI18default_hash_entryIN3sat11npn3_finder6binaryEENS3_4hashENS3_2eqEE24insert_if_not_there_coreEOS3_RPS4_(ptr noundef nonnull align 8 dereferenceable(20) %this1, ptr noundef nonnull align 8 dereferenceable(16) %temp, ptr noundef nonnull align 8 dereferenceable(8) %1)
  ret i1 %call
}

; Function Attrs: mustprogress uwtable
define linkonce_odr hidden noundef nonnull align 8 dereferenceable(8) ptr @_ZN6vectorISt4pairIN3sat7literalEPNS1_6clauseEELb0EjE9push_backEOS5_(ptr noundef nonnull align 8 dereferenceable(8) %this, ptr noundef nonnull align 8 dereferenceable(16) %elem) #5 comdat align 2 {
entry:
  %this.addr = alloca ptr, align 8
  %elem.addr = alloca ptr, align 8
  store ptr %this, ptr %this.addr, align 8
  store ptr %elem, ptr %elem.addr, align 8
  %this1 = load ptr, ptr %this.addr, align 8
  %m_data = getelementptr inbounds %class.vector.18, ptr %this1, i32 0, i32 0
  %0 = load ptr, ptr %m_data, align 8
  %cmp = icmp eq ptr %0, null
  br i1 %cmp, label %if.then, label %lor.lhs.false

lor.lhs.false:                                    ; preds = %entry
  %m_data2 = getelementptr inbounds %class.vector.18, ptr %this1, i32 0, i32 0
  %1 = load ptr, ptr %m_data2, align 8
  %arrayidx = getelementptr inbounds i32, ptr %1, i64 -1
  %2 = load i32, ptr %arrayidx, align 4
  %m_data3 = getelementptr inbounds %class.vector.18, ptr %this1, i32 0, i32 0
  %3 = load ptr, ptr %m_data3, align 8
  %arrayidx4 = getelementptr inbounds i32, ptr %3, i64 -2
  %4 = load i32, ptr %arrayidx4, align 4
  %cmp5 = icmp eq i32 %2, %4
  br i1 %cmp5, label %if.then, label %if.end

if.then:                                          ; preds = %lor.lhs.false, %entry
  call void @_ZN6vectorISt4pairIN3sat7literalEPNS1_6clauseEELb0EjE13expand_vectorEv(ptr noundef nonnull align 8 dereferenceable(8) %this1)
  br label %if.end

if.end:                                           ; preds = %if.then, %lor.lhs.false
  %m_data6 = getelementptr inbounds %class.vector.18, ptr %this1, i32 0, i32 0
  %5 = load ptr, ptr %m_data6, align 8
  %m_data7 = getelementptr inbounds %class.vector.18, ptr %this1, i32 0, i32 0
  %6 = load ptr, ptr %m_data7, align 8
  %arrayidx8 = getelementptr inbounds i32, ptr %6, i64 -1
  %7 = load i32, ptr %arrayidx8, align 4
  %idx.ext = zext i32 %7 to i64
  %add.ptr = getelementptr inbounds %"struct.std::pair", ptr %5, i64 %idx.ext
  %8 = load ptr, ptr %elem.addr, align 8
  call void @llvm.memcpy.p0.p0.i64(ptr align 8 %add.ptr, ptr align 8 %8, i64 16, i1 false)
  %m_data9 = getelementptr inbounds %class.vector.18, ptr %this1, i32 0, i32 0
  %9 = load ptr, ptr %m_data9, align 8
  %arrayidx10 = getelementptr inbounds i32, ptr %9, i64 -1
  %10 = load i32, ptr %arrayidx10, align 4
  %inc = add i32 %10, 1
  store i32 %inc, ptr %arrayidx10, align 4
  ret ptr %this1
}

; Function Attrs: mustprogress uwtable
define linkonce_odr hidden { i32, ptr } @_ZSt9make_pairIRN3sat7literalERPNS0_6clauseEESt4pairINSt25__strip_reference_wrapperINSt5decayIT_E4typeEE6__typeENS7_INS8_IT0_E4typeEE6__typeEEOS9_OSE_(ptr noundef nonnull align 4 dereferenceable(4) %__x, ptr noundef nonnull align 8 dereferenceable(8) %__y) #5 comdat {
entry:
  %retval = alloca %"struct.std::pair", align 8
  %__x.addr = alloca ptr, align 8
  %__y.addr = alloca ptr, align 8
  store ptr %__x, ptr %__x.addr, align 8
  store ptr %__y, ptr %__y.addr, align 8
  %0 = load ptr, ptr %__x.addr, align 8
  %1 = load ptr, ptr %__y.addr, align 8
  call void @_ZNSt4pairIN3sat7literalEPNS0_6clauseEEC2IRS1_RS3_TnNSt9enable_ifIXaaclsr5_PCCPE22_MoveConstructiblePairIT_T0_EEclsr5_PCCPE30_ImplicitlyMoveConvertiblePairIS9_SA_EEEbE4typeELb1EEEOS9_OSA_(ptr noundef nonnull align 8 dereferenceable(16) %retval, ptr noundef nonnull align 4 dereferenceable(4) %0, ptr noundef nonnull align 8 dereferenceable(8) %1)
  %2 = load { i32, ptr }, ptr %retval, align 8
  ret { i32, ptr } %2
}

; Function Attrs: mustprogress uwtable
define linkonce_odr hidden void @_ZN17scoped_ptr_vectorI7svectorISt4pairIN3sat7literalEPNS2_6clauseEEjEE9push_backEPS7_(ptr noundef nonnull align 8 dereferenceable(8) %this, ptr noundef %ptr) #5 comdat align 2 {
entry:
  %this.addr = alloca ptr, align 8
  %ptr.addr = alloca ptr, align 8
  store ptr %this, ptr %this.addr, align 8
  store ptr %ptr, ptr %ptr.addr, align 8
  %this1 = load ptr, ptr %this.addr, align 8
  %m_vector = getelementptr inbounds %class.scoped_ptr_vector, ptr %this1, i32 0, i32 0
  %call = call noundef nonnull align 8 dereferenceable(8) ptr @_ZN6vectorIP7svectorISt4pairIN3sat7literalEPNS2_6clauseEEjELb0EjE9push_backERKS8_(ptr noundef nonnull align 8 dereferenceable(8) %m_vector, ptr noundef nonnull align 8 dereferenceable(8) %ptr.addr)
  ret void
}

; Function Attrs: mustprogress nounwind uwtable
define linkonce_odr hidden void @_ZN7svectorISt4pairIN3sat7literalEPNS1_6clauseEEjEC2Ev(ptr noundef nonnull align 8 dereferenceable(8) %this) unnamed_addr #4 comdat align 2 {
entry:
  %this.addr = alloca ptr, align 8
  store ptr %this, ptr %this.addr, align 8
  %this1 = load ptr, ptr %this.addr, align 8
  %0 = getelementptr inbounds i8, ptr %this1, i64 0
  call void @llvm.memset.p0.i64(ptr align 8 %0, i8 0, i64 8, i1 false)
  call void @_ZN6vectorISt4pairIN3sat7literalEPNS1_6clauseEELb0EjEC2Ev(ptr noundef nonnull align 8 dereferenceable(8) %this1) #3
  ret void
}

; Function Attrs: mustprogress nounwind uwtable
define linkonce_odr hidden noundef nonnull align 8 dereferenceable(16) ptr @_ZN18default_hash_entryIN3sat11npn3_finder6binaryEE8get_dataEv(ptr noundef nonnull align 8 dereferenceable(24) %this) #4 comdat align 2 {
entry:
  %this.addr = alloca ptr, align 8
  store ptr %this, ptr %this.addr, align 8
  %this1 = load ptr, ptr %this.addr, align 8
  %m_data = getelementptr inbounds %class.default_hash_entry.79, ptr %this1, i32 0, i32 2
  ret ptr %m_data
}

; Function Attrs: mustprogress uwtable
define linkonce_odr hidden noundef ptr @_ZN14core_hashtableI18default_hash_entryIN3sat11npn3_finder6binaryEENS3_4hashENS3_2eqEE20insert_if_not_there2ERKS3_(ptr noundef nonnull align 8 dereferenceable(20) %this, ptr noundef nonnull align 8 dereferenceable(16) %e) #5 comdat align 2 {
entry:
  %this.addr = alloca ptr, align 8
  %e.addr = alloca ptr, align 8
  %et = alloca ptr, align 8
  store ptr %this, ptr %this.addr, align 8
  store ptr %e, ptr %e.addr, align 8
  %this1 = load ptr, ptr %this.addr, align 8
  %0 = load ptr, ptr %e.addr, align 8
  %call = call noundef zeroext i1 @_ZN14core_hashtableI18default_hash_entryIN3sat11npn3_finder6binaryEENS3_4hashENS3_2eqEE24insert_if_not_there_coreERKS3_RPS4_(ptr noundef nonnull align 8 dereferenceable(20) %this1, ptr noundef nonnull align 8 dereferenceable(16) %0, ptr noundef nonnull align 8 dereferenceable(8) %et)
  %1 = load ptr, ptr %et, align 8
  ret ptr %1
}

; Function Attrs: mustprogress uwtable
define internal void @"_ZZN3sat11npn3_finder20process_more_clausesER10ptr_vectorINS_6clauseEER9hashtableINS0_6binaryENS6_4hashENS6_2eqEERS5_INS0_7ternaryENSB_4hashENSB_2eqEERS5_INS0_10quaternaryENSG_4hashENSG_2eqEEENK3$_1clENS_7literalESM_SM_PS2_"(ptr noundef nonnull align 8 dereferenceable(16) %this, i32 %x.coerce, i32 %y.coerce, i32 %z.coerce, ptr noundef %c) #5 align 2 {
entry:
  %x = alloca %"class.sat::literal", align 4
  %y = alloca %"class.sat::literal", align 4
  %z = alloca %"class.sat::literal", align 4
  %this.addr = alloca ptr, align 8
  %c.addr = alloca ptr, align 8
  %b = alloca %"struct.sat::npn3_finder::binary", align 8
  %agg.tmp = alloca %"class.sat::literal", align 4
  %agg.tmp4 = alloca %"class.sat::literal", align 4
  %e = alloca ptr, align 8
  %use_list8 = alloca ptr, align 8
  %ref.tmp = alloca %"struct.std::pair", align 8
  %coerce.dive = getelementptr inbounds %"class.sat::literal", ptr %x, i32 0, i32 0
  store i32 %x.coerce, ptr %coerce.dive, align 4
  %coerce.dive1 = getelementptr inbounds %"class.sat::literal", ptr %y, i32 0, i32 0
  store i32 %y.coerce, ptr %coerce.dive1, align 4
  %coerce.dive2 = getelementptr inbounds %"class.sat::literal", ptr %z, i32 0, i32 0
  store i32 %z.coerce, ptr %coerce.dive2, align 4
  store ptr %this, ptr %this.addr, align 8
  store ptr %c, ptr %c.addr, align 8
  %this3 = load ptr, ptr %this.addr, align 8
  %0 = getelementptr inbounds %class.anon.61, ptr %this3, i32 0, i32 1
  %1 = load ptr, ptr %0, align 8
  call void @llvm.memcpy.p0.p0.i64(ptr align 4 %agg.tmp, ptr align 4 %x, i64 4, i1 false)
  call void @llvm.memcpy.p0.p0.i64(ptr align 4 %agg.tmp4, ptr align 4 %y, i64 4, i1 false)
  %coerce.dive5 = getelementptr inbounds %"class.sat::literal", ptr %agg.tmp, i32 0, i32 0
  %2 = load i32, ptr %coerce.dive5, align 4
  %coerce.dive6 = getelementptr inbounds %"class.sat::literal", ptr %agg.tmp4, i32 0, i32 0
  %3 = load i32, ptr %coerce.dive6, align 4
  call void @_ZN3sat11npn3_finder6binaryC1ENS_7literalES2_P7svectorISt4pairIS2_PNS_6clauseEEjE(ptr noundef nonnull align 8 dereferenceable(16) %b, i32 %2, i32 %3, ptr noundef null)
  %4 = getelementptr inbounds %class.anon.61, ptr %this3, i32 0, i32 0
  %5 = load ptr, ptr %4, align 8
  %call = call noundef ptr @_ZN14core_hashtableI18default_hash_entryIN3sat11npn3_finder6binaryEENS3_4hashENS3_2eqEE20insert_if_not_there2ERKS3_(ptr noundef nonnull align 8 dereferenceable(20) %5, ptr noundef nonnull align 8 dereferenceable(16) %b)
  store ptr %call, ptr %e, align 8
  %6 = load ptr, ptr %e, align 8
  %call7 = call noundef nonnull align 8 dereferenceable(16) ptr @_ZN18default_hash_entryIN3sat11npn3_finder6binaryEE8get_dataEv(ptr noundef nonnull align 8 dereferenceable(24) %6)
  %use_list = getelementptr inbounds %"struct.sat::npn3_finder::binary", ptr %call7, i32 0, i32 2
  %7 = load ptr, ptr %use_list, align 8
  %cmp = icmp eq ptr %7, null
  br i1 %cmp, label %if.then, label %if.end

if.then:                                          ; preds = %entry
  %call9 = call noalias noundef ptr @_ZN6memory8allocateEm(i64 noundef 8)
  call void @_ZN7svectorISt4pairIN3sat7literalEPNS1_6clauseEEjEC2Ev(ptr noundef nonnull align 8 dereferenceable(8) %call9)
  store ptr %call9, ptr %use_list8, align 8
  %m_use_lists = getelementptr inbounds %"class.sat::npn3_finder", ptr %1, i32 0, i32 12
  %8 = load ptr, ptr %use_list8, align 8
  call void @_ZN17scoped_ptr_vectorI7svectorISt4pairIN3sat7literalEPNS2_6clauseEEjEE9push_backEPS7_(ptr noundef nonnull align 8 dereferenceable(8) %m_use_lists, ptr noundef %8)
  %9 = load ptr, ptr %use_list8, align 8
  %10 = load ptr, ptr %e, align 8
  %call10 = call noundef nonnull align 8 dereferenceable(16) ptr @_ZN18default_hash_entryIN3sat11npn3_finder6binaryEE8get_dataEv(ptr noundef nonnull align 8 dereferenceable(24) %10)
  %use_list11 = getelementptr inbounds %"struct.sat::npn3_finder::binary", ptr %call10, i32 0, i32 2
  store ptr %9, ptr %use_list11, align 8
  br label %if.end

if.end:                                           ; preds = %if.then, %entry
  %11 = load ptr, ptr %e, align 8
  %call12 = call noundef nonnull align 8 dereferenceable(16) ptr @_ZN18default_hash_entryIN3sat11npn3_finder6binaryEE8get_dataEv(ptr noundef nonnull align 8 dereferenceable(24) %11)
  %use_list13 = getelementptr inbounds %"struct.sat::npn3_finder::binary", ptr %call12, i32 0, i32 2
  %12 = load ptr, ptr %use_list13, align 8
  %call14 = call { i32, ptr } @_ZSt9make_pairIRN3sat7literalERPNS0_6clauseEESt4pairINSt25__strip_reference_wrapperINSt5decayIT_E4typeEE6__typeENS7_INS8_IT0_E4typeEE6__typeEEOS9_OSE_(ptr noundef nonnull align 4 dereferenceable(4) %z, ptr noundef nonnull align 8 dereferenceable(8) %c.addr)
  %13 = getelementptr inbounds { i32, ptr }, ptr %ref.tmp, i32 0, i32 0
  %14 = extractvalue { i32, ptr } %call14, 0
  store i32 %14, ptr %13, align 8
  %15 = getelementptr inbounds { i32, ptr }, ptr %ref.tmp, i32 0, i32 1
  %16 = extractvalue { i32, ptr } %call14, 1
  store ptr %16, ptr %15, align 8
  %call15 = call noundef nonnull align 8 dereferenceable(8) ptr @_ZN6vectorISt4pairIN3sat7literalEPNS1_6clauseEELb0EjE9push_backEOS5_(ptr noundef nonnull align 8 dereferenceable(8) %12, ptr noundef nonnull align 8 dereferenceable(16) %ref.tmp)
  ret void
}