; Function Attrs: mustprogress uwtable
define internal fastcc void @"_ZZN3sat11npn3_finder20process_more_clausesER10ptr_vectorINS_6clauseEER9hashtableINS0_6binaryENS6_4hashENS6_2eqEERS5_INS0_7ternaryENSB_4hashENSB_2eqEERS5_INS0_10quaternaryENSG_4hashENSG_2eqEEENK3$_1clENS_7literalESM_SM_PS2_"(ptr nonnull %this.0.val, ptr %this.8.val, i32 %x.coerce, i32 %y.coerce, i32 %z.coerce, ptr noundef %c) unnamed_addr #7 align 2 {
entry:
  %temp.i.i = alloca %"struct.sat::npn3_finder::binary", align 8
  %et.i = alloca ptr, align 8
  %spec.select = tail call i32 @llvm.umin.i32(i32 %x.coerce, i32 %y.coerce)
  %spec.select2 = tail call i32 @llvm.umax.i32(i32 %x.coerce, i32 %y.coerce)
  call void @llvm.lifetime.start.p0(i64 8, ptr nonnull %et.i)
  call void @llvm.lifetime.start.p0(i64 16, ptr nonnull %temp.i.i)
  store i32 %spec.select, ptr %temp.i.i, align 8
  %b.sroa.3.0.temp.i.i.sroa_idx = getelementptr inbounds i8, ptr %temp.i.i, i64 4
  store i32 %spec.select2, ptr %b.sroa.3.0.temp.i.i.sroa_idx, align 4
  %b.sroa.5.0.temp.i.i.sroa_idx = getelementptr inbounds i8, ptr %temp.i.i, i64 8
  store ptr null, ptr %b.sroa.5.0.temp.i.i.sroa_idx, align 8
  %call.i.i = call noundef zeroext i1 @_ZN14core_hashtableI18default_hash_entryIN3sat11npn3_finder6binaryEENS3_4hashENS3_2eqEE24insert_if_not_there_coreEOS3_RPS4_(ptr noundef nonnull align 8 dereferenceable(20) %this.0.val, ptr noundef nonnull align 8 dereferenceable(16) %temp.i.i, ptr noundef nonnull align 8 dereferenceable(8) %et.i)
  call void @llvm.lifetime.end.p0(i64 16, ptr nonnull %temp.i.i)
  %0 = load ptr, ptr %et.i, align 8
  call void @llvm.lifetime.end.p0(i64 8, ptr nonnull %et.i)
  %use_list = getelementptr inbounds i8, ptr %0, i64 16
  %1 = load ptr, ptr %use_list, align 8
  %cmp = icmp eq ptr %1, null
  br i1 %cmp, label %if.then, label %if.end

if.then:                                          ; preds = %entry
  %call9 = call noalias noundef ptr @_ZN6memory8allocateEm(i64 noundef 8)
  store ptr null, ptr %call9, align 8
  %m_use_lists = getelementptr inbounds i8, ptr %this.8.val, i64 408
  %2 = load ptr, ptr %m_use_lists, align 8
  %cmp.i.i = icmp eq ptr %2, null
  br i1 %cmp.i.i, label %if.then.i.i, label %lor.lhs.false.i.i

lor.lhs.false.i.i:                                ; preds = %if.then
  %arrayidx.i.i = getelementptr inbounds i8, ptr %2, i64 -4
  %3 = load i32, ptr %arrayidx.i.i, align 4
  %arrayidx4.i.i = getelementptr inbounds i8, ptr %2, i64 -8
  %4 = load i32, ptr %arrayidx4.i.i, align 4
  %cmp5.i.i = icmp eq i32 %3, %4
  br i1 %cmp5.i.i, label %if.then.i.i, label %_ZN17scoped_ptr_vectorI7svectorISt4pairIN3sat7literalEPNS2_6clauseEEjEE9push_backEPS7_.exit

if.then.i.i:                                      ; preds = %lor.lhs.false.i.i, %if.then
  call void @_ZN6vectorIP7svectorISt4pairIN3sat7literalEPNS2_6clauseEEjELb0EjE13expand_vectorEv(ptr noundef nonnull align 8 dereferenceable(8) %m_use_lists)
  %.pre.i.i = load ptr, ptr %m_use_lists, align 8
  %arrayidx8.phi.trans.insert.i.i = getelementptr inbounds i8, ptr %.pre.i.i, i64 -4
  %.pre1.i.i = load i32, ptr %arrayidx8.phi.trans.insert.i.i, align 4
  br label %_ZN17scoped_ptr_vectorI7svectorISt4pairIN3sat7literalEPNS2_6clauseEEjEE9push_backEPS7_.exit

_ZN17scoped_ptr_vectorI7svectorISt4pairIN3sat7literalEPNS2_6clauseEEjEE9push_backEPS7_.exit: ; preds = %lor.lhs.false.i.i, %if.then.i.i
  %5 = phi i32 [ %.pre1.i.i, %if.then.i.i ], [ %3, %lor.lhs.false.i.i ]
  %6 = phi ptr [ %.pre.i.i, %if.then.i.i ], [ %2, %lor.lhs.false.i.i ]
  %idx.ext.i.i = zext i32 %5 to i64
  %add.ptr.i.i = getelementptr inbounds ptr, ptr %6, i64 %idx.ext.i.i
  store ptr %call9, ptr %add.ptr.i.i, align 8
  %7 = load ptr, ptr %m_use_lists, align 8
  %arrayidx10.i.i = getelementptr inbounds i8, ptr %7, i64 -4
  %8 = load i32, ptr %arrayidx10.i.i, align 4
  %inc.i.i = add i32 %8, 1
  store i32 %inc.i.i, ptr %arrayidx10.i.i, align 4
  store ptr %call9, ptr %use_list, align 8
  br label %if.end

if.end:                                           ; preds = %_ZN17scoped_ptr_vectorI7svectorISt4pairIN3sat7literalEPNS2_6clauseEEjEE9push_backEPS7_.exit, %entry
  %9 = phi ptr [ %call9, %_ZN17scoped_ptr_vectorI7svectorISt4pairIN3sat7literalEPNS2_6clauseEEjEE9push_backEPS7_.exit ], [ %1, %entry ]
  %10 = load ptr, ptr %9, align 8
  %cmp.i6 = icmp eq ptr %10, null
  br i1 %cmp.i6, label %if.then.i7, label %lor.lhs.false.i

lor.lhs.false.i:                                  ; preds = %if.end
  %arrayidx.i = getelementptr inbounds i8, ptr %10, i64 -4
  %11 = load i32, ptr %arrayidx.i, align 4
  %arrayidx4.i = getelementptr inbounds i8, ptr %10, i64 -8
  %12 = load i32, ptr %arrayidx4.i, align 4
  %cmp5.i = icmp eq i32 %11, %12
  br i1 %cmp5.i, label %if.then.i7, label %_ZN6vectorISt4pairIN3sat7literalEPNS1_6clauseEELb0EjE9push_backEOS5_.exit

if.then.i7:                                       ; preds = %lor.lhs.false.i, %if.end
  call void @_ZN6vectorISt4pairIN3sat7literalEPNS1_6clauseEELb0EjE13expand_vectorEv(ptr noundef nonnull align 8 dereferenceable(8) %9)
  %.pre.i = load ptr, ptr %9, align 8
  %arrayidx8.phi.trans.insert.i = getelementptr inbounds i8, ptr %.pre.i, i64 -4
  %.pre1.i = load i32, ptr %arrayidx8.phi.trans.insert.i, align 4
  br label %_ZN6vectorISt4pairIN3sat7literalEPNS1_6clauseEELb0EjE9push_backEOS5_.exit

_ZN6vectorISt4pairIN3sat7literalEPNS1_6clauseEELb0EjE9push_backEOS5_.exit: ; preds = %lor.lhs.false.i, %if.then.i7
  %13 = phi i32 [ %.pre1.i, %if.then.i7 ], [ %11, %lor.lhs.false.i ]
  %14 = phi ptr [ %.pre.i, %if.then.i7 ], [ %10, %lor.lhs.false.i ]
  %idx.ext.i = zext i32 %13 to i64
  %add.ptr.i = getelementptr inbounds %"struct.std::pair", ptr %14, i64 %idx.ext.i
  store i32 %z.coerce, ptr %add.ptr.i, align 8
  %ref.tmp.sroa.21.0.add.ptr.i.sroa_idx = getelementptr inbounds i8, ptr %add.ptr.i, i64 8
  store ptr %c, ptr %ref.tmp.sroa.21.0.add.ptr.i.sroa_idx, align 8
  %15 = load ptr, ptr %9, align 8
  %arrayidx10.i = getelementptr inbounds i8, ptr %15, i64 -4
  %16 = load i32, ptr %arrayidx10.i, align 4
  %inc.i = add i32 %16, 1
  store i32 %inc.i, ptr %arrayidx10.i, align 4
  ret void
}